target datalayout = "e-m:e-p270:32:32-p271:32:32-p272:64:64-i64:64-i128:128-f80:128-n8:16:32:64-S128"
target triple = "x86_64-pc-linux-gnu"

%struct.dict = type { ptr, [2 x ptr], [2 x i64], i64, i16, [2 x i8], i16, [0 x ptr] }

@lazyfree_objects = internal global i64 0, align 8
@lazyfreed_objects = internal global i64 0, align 8

; Function Attrs: nounwind uwtable
define dso_local void @lazyFreeFunctionsCtx(ptr noundef %0) #0 {
  %2 = alloca ptr, align 8
  %3 = alloca ptr, align 8
  %4 = alloca ptr, align 8
  %5 = alloca i64, align 8
  %6 = alloca i64, align 8
  %7 = alloca i64, align 8
  %8 = alloca i64, align 8
  %9 = alloca i64, align 8
  store ptr %0, ptr %2, align 8, !tbaa !5
  call void @llvm.lifetime.start.p0(i64 8, ptr %3) #7
  %10 = load ptr, ptr %2, align 8, !tbaa !5
  %11 = getelementptr inbounds ptr, ptr %10, i64 0
  %12 = load ptr, ptr %11, align 8, !tbaa !5
  store ptr %12, ptr %3, align 8, !tbaa !25
  call void @llvm.lifetime.start.p0(i64 8, ptr %4) #7
  %13 = load ptr, ptr %2, align 8, !tbaa !5
  %14 = getelementptr inbounds ptr, ptr %13, i64 1
  %15 = load ptr, ptr %14, align 8, !tbaa !5
  store ptr %15, ptr %4, align 8, !tbaa !17
  call void @llvm.lifetime.start.p0(i64 8, ptr %5) #7
  %16 = load ptr, ptr %3, align 8, !tbaa !25
  %17 = call i64 @functionsLibCtxFunctionsLen(ptr noundef %16)
  store i64 %17, ptr %5, align 8, !tbaa !11
  %18 = load ptr, ptr %3, align 8, !tbaa !25
  call void @functionsLibCtxFree(ptr noundef %18)
  %19 = load ptr, ptr %4, align 8, !tbaa !17
  %20 = getelementptr inbounds nuw %struct.dict, ptr %19, i32 0, i32 2
  %21 = getelementptr inbounds [2 x i64], ptr %20, i64 0, i64 0
  %22 = load i64, ptr %21, align 8, !tbaa !11
  %23 = load ptr, ptr %4, align 8, !tbaa !17
  %24 = getelementptr inbounds nuw %struct.dict, ptr %23, i32 0, i32 2
  %25 = getelementptr inbounds [2 x i64], ptr %24, i64 0, i64 1
  %26 = load i64, ptr %25, align 8, !tbaa !11
  %27 = add i64 %22, %26
  %28 = load i64, ptr %5, align 8, !tbaa !11
  %29 = add i64 %28, %27
  store i64 %29, ptr %5, align 8, !tbaa !11
  %30 = load ptr, ptr %4, align 8, !tbaa !17
  call void @dictRelease(ptr noundef %30)
  %31 = load i64, ptr %5, align 8, !tbaa !11
  store i64 %31, ptr %6, align 8, !tbaa !11
  %32 = load i64, ptr %6, align 8
  %33 = atomicrmw sub ptr @lazyfree_objects, i64 %32 monotonic, align 8
  store i64 %33, ptr %7, align 8
  %34 = load i64, ptr %5, align 8, !tbaa !11
  store i64 %34, ptr %8, align 8, !tbaa !11
  %35 = load i64, ptr %8, align 8
  %36 = atomicrmw add ptr @lazyfreed_objects, i64 %35 monotonic, align 8
  store i64 %36, ptr %9, align 8
  call void @llvm.lifetime.end.p0(i64 8, ptr %5) #7
  call void @llvm.lifetime.end.p0(i64 8, ptr %4) #7
  call void @llvm.lifetime.end.p0(i64 8, ptr %3) #7
  ret void
}