; Function Attrs: nounwind uwtable
define dso_local void @lazyFreeFunctionsCtx(ptr noundef readonly captures(none) %0) #0 {
  %2 = load ptr, ptr %0, align 8, !tbaa !5
  %3 = getelementptr inbounds nuw i8, ptr %0, i64 8
  %4 = load ptr, ptr %3, align 8, !tbaa !5
  %5 = tail call i64 @functionsLibCtxFunctionsLen(ptr noundef %2) #6
  tail call void @functionsLibCtxFree(ptr noundef %2) #6
  %6 = getelementptr inbounds nuw i8, ptr %4, i64 24
  %7 = load i64, ptr %6, align 8, !tbaa !9
  %8 = getelementptr inbounds nuw i8, ptr %4, i64 32
  %9 = load i64, ptr %8, align 8, !tbaa !9
  %10 = add i64 %7, %5
  %11 = add i64 %10, %9
  tail call void @dictRelease(ptr noundef %4) #6
  %12 = atomicrmw sub ptr @lazyfree_objects, i64 %11 monotonic, align 8
  %13 = atomicrmw add ptr @lazyfreed_objects, i64 %11 monotonic, align 8
  ret void
}